target datalayout = "e-m:e-p270:32:32-p271:32:32-p272:64:64-i64:64-i128:128-f80:128-n8:16:32:64-S128"
target triple = "x86_64-pc-linux-gnu"

%struct.uv_loop_s = type { ptr, i32, [2 x ptr], %union.anon.1, ptr, i32, i64, i32, [2 x ptr], [2 x ptr], ptr, i32, i32, [2 x ptr], %union.pthread_mutex_t, %struct.uv_async_s, %union.pthread_rwlock_t, ptr, [2 x ptr], [2 x ptr], [2 x ptr], [2 x ptr], [2 x ptr], ptr, %struct.uv__io_s, i32, %struct.anon, i64, i64, [2 x i32], %struct.uv__io_s, %struct.uv_signal_s, i32, %struct.uv__io_s, ptr, i32 }
%union.anon.1 = type { ptr }
%union.pthread_mutex_t = type { %struct.__pthread_mutex_s }
%struct.__pthread_mutex_s = type { i32, i32, i32, i32, i32, i16, i16, %struct.__pthread_internal_list }
%struct.__pthread_internal_list = type { ptr, ptr }
%struct.uv_async_s = type { ptr, ptr, i32, ptr, [2 x ptr], %union.anon.2, ptr, i32, ptr, [2 x ptr], i32 }
%union.anon.2 = type { [4 x ptr] }
%union.pthread_rwlock_t = type { %struct.__pthread_rwlock_arch_t }
%struct.__pthread_rwlock_arch_t = type { i32, i32, i32, i32, i32, i32, i32, i32, i8, [7 x i8], i64, i32 }
%struct.anon = type { ptr, i32 }
%struct.uv_signal_s = type { ptr, ptr, i32, ptr, [2 x ptr], %union.anon.3, ptr, i32, ptr, i32, %struct.anon.4, i32, i32 }
%union.anon.3 = type { [4 x ptr] }
%struct.anon.4 = type { ptr, ptr, ptr, i32 }
%struct.uv__io_s = type { ptr, [2 x ptr], [2 x ptr], i32, i32, i32 }
%struct.uv_stream_s = type { ptr, ptr, i32, ptr, [2 x ptr], %union.anon, ptr, i32, i64, ptr, ptr, ptr, ptr, %struct.uv__io_s, [2 x ptr], [2 x ptr], ptr, i32, i32, ptr }
%union.anon = type { [4 x ptr] }
%struct.uv_shutdown_s = type { ptr, i32, [6 x ptr], ptr, ptr }

; Function Attrs: nounwind uwtable
define internal void @uv__stream_osx_interrupt_select(ptr noundef %0) #0 {
  %2 = alloca ptr, align 8
  store ptr %0, ptr %2, align 8
  ret void
}

; Function Attrs: nounwind uwtable
define internal void @uv__drain(ptr noundef %0) #0 {
  %2 = alloca ptr, align 8
  %3 = alloca ptr, align 8
  %4 = alloca i32, align 4
  store ptr %0, ptr %2, align 8
  %5 = load ptr, ptr %2, align 8
  %6 = getelementptr inbounds %struct.uv_stream_s, ptr %5, i32 0, i32 7
  %7 = load i32, ptr %6, align 8
  %8 = and i32 %7, 1
  %9 = icmp ne i32 %8, 0
  br i1 %9, label %17, label %10

10:                                               ; preds = %1
  %11 = load ptr, ptr %2, align 8
  %12 = getelementptr inbounds %struct.uv_stream_s, ptr %11, i32 0, i32 1
  %13 = load ptr, ptr %12, align 8
  %14 = load ptr, ptr %2, align 8
  %15 = getelementptr inbounds %struct.uv_stream_s, ptr %14, i32 0, i32 13
  call void @uv__io_stop(ptr noundef %13, ptr noundef %15, i32 noundef 4)
  %16 = load ptr, ptr %2, align 8
  call void @uv__stream_osx_interrupt_select(ptr noundef %16)
  br label %17

17:                                               ; preds = %10, %1
  %18 = load ptr, ptr %2, align 8
  %19 = getelementptr inbounds %struct.uv_stream_s, ptr %18, i32 0, i32 7
  %20 = load i32, ptr %19, align 8
  %21 = and i32 %20, 256
  %22 = icmp ne i32 %21, 0
  br i1 %22, label %24, label %23

23:                                               ; preds = %17
  br label %89

24:                                               ; preds = %17
  %25 = load ptr, ptr %2, align 8
  %26 = getelementptr inbounds %struct.uv_stream_s, ptr %25, i32 0, i32 12
  %27 = load ptr, ptr %26, align 8
  store ptr %27, ptr %3, align 8
  %28 = load ptr, ptr %2, align 8
  %29 = getelementptr inbounds %struct.uv_stream_s, ptr %28, i32 0, i32 7
  %30 = load i32, ptr %29, align 8
  %31 = and i32 %30, 1
  %32 = icmp ne i32 %31, 0
  br i1 %32, label %39, label %33

33:                                               ; preds = %24
  %34 = load ptr, ptr %2, align 8
  %35 = getelementptr inbounds %struct.uv_stream_s, ptr %34, i32 0, i32 7
  %36 = load i32, ptr %35, align 8
  %37 = and i32 %36, 512
  %38 = icmp ne i32 %37, 0
  br i1 %38, label %89, label %39

39:                                               ; preds = %33, %24
  %40 = load ptr, ptr %2, align 8
  %41 = getelementptr inbounds %struct.uv_stream_s, ptr %40, i32 0, i32 12
  store ptr null, ptr %41, align 8
  %42 = load ptr, ptr %2, align 8
  %43 = getelementptr inbounds %struct.uv_stream_s, ptr %42, i32 0, i32 7
  %44 = load i32, ptr %43, align 8
  %45 = and i32 %44, -257
  store i32 %45, ptr %43, align 8
  br label %46

46:                                               ; preds = %39
  %47 = load ptr, ptr %2, align 8
  %48 = getelementptr inbounds %struct.uv_stream_s, ptr %47, i32 0, i32 1
  %49 = load ptr, ptr %48, align 8
  %50 = getelementptr inbounds %struct.uv_loop_s, ptr %49, i32 0, i32 3
  %51 = load i32, ptr %50, align 8
  %52 = add i32 %51, -1
  store i32 %52, ptr %50, align 8
  br label %53

53:                                               ; preds = %46
  store i32 0, ptr %4, align 4
  %54 = load ptr, ptr %2, align 8
  %55 = getelementptr inbounds %struct.uv_stream_s, ptr %54, i32 0, i32 7
  %56 = load i32, ptr %55, align 8
  %57 = and i32 %56, 1
  %58 = icmp ne i32 %57, 0
  br i1 %58, label %59, label %60

59:                                               ; preds = %53
  store i32 -125, ptr %4, align 4
  br label %77

60:                                               ; preds = %53
  %61 = load ptr, ptr %2, align 8
  %62 = getelementptr inbounds %struct.uv_stream_s, ptr %61, i32 0, i32 13
  %63 = getelementptr inbounds %struct.uv__io_s, ptr %62, i32 0, i32 5
  %64 = load i32, ptr %63, align 8
  %65 = call i32 @shutdown(i32 noundef %64, i32 noundef 1) #7
  %66 = icmp ne i32 %65, 0
  br i1 %66, label %67, label %71

67:                                               ; preds = %60
  %68 = call ptr @__errno_location() #6
  %69 = load i32, ptr %68, align 4
  %70 = sub nsw i32 0, %69
  store i32 %70, ptr %4, align 4
  br label %76

71:                                               ; preds = %60
  %72 = load ptr, ptr %2, align 8
  %73 = getelementptr inbounds %struct.uv_stream_s, ptr %72, i32 0, i32 7
  %74 = load i32, ptr %73, align 8
  %75 = or i32 %74, 512
  store i32 %75, ptr %73, align 8
  br label %76

76:                                               ; preds = %71, %67
  br label %77

77:                                               ; preds = %76, %59
  %78 = load ptr, ptr %3, align 8
  %79 = getelementptr inbounds %struct.uv_shutdown_s, ptr %78, i32 0, i32 4
  %80 = load ptr, ptr %79, align 8
  %81 = icmp ne ptr %80, null
  br i1 %81, label %82, label %88

82:                                               ; preds = %77
  %83 = load ptr, ptr %3, align 8
  %84 = getelementptr inbounds %struct.uv_shutdown_s, ptr %83, i32 0, i32 4
  %85 = load ptr, ptr %84, align 8
  %86 = load ptr, ptr %3, align 8
  %87 = load i32, ptr %4, align 4
  call void %85(ptr noundef %86, i32 noundef %87)
  br label %88

88:                                               ; preds = %82, %77
  br label %89

89:                                               ; preds = %88, %33, %23
  ret void
}