; Function Attrs: nounwind uwtable
define internal fastcc void @uv__drain(ptr noundef %0) unnamed_addr #0 {
  %2 = getelementptr inbounds nuw i8, ptr %0, i64 88
  %3 = load i32, ptr %2, align 8
  %4 = and i32 %3, 1
  %.not = icmp eq i32 %4, 0
  br i1 %.not, label %5, label %9

5:                                                ; preds = %1
  %6 = getelementptr inbounds nuw i8, ptr %0, i64 8
  %7 = load ptr, ptr %6, align 8
  %8 = getelementptr inbounds nuw i8, ptr %0, i64 136
  tail call void @uv__io_stop(ptr noundef %7, ptr noundef nonnull %8, i32 noundef 4) #12
  %.pre = load i32, ptr %2, align 8
  br label %9

9:                                                ; preds = %5, %1
  %10 = phi i32 [ %.pre, %5 ], [ %3, %1 ]
  %11 = and i32 %10, 256
  %.not18 = icmp eq i32 %11, 0
  br i1 %.not18, label %40, label %12

12:                                               ; preds = %9
  %13 = getelementptr inbounds nuw i8, ptr %0, i64 128
  %14 = load ptr, ptr %13, align 8
  %15 = and i32 %10, 513
  %or.cond.not = icmp eq i32 %15, 512
  br i1 %or.cond.not, label %40, label %16

16:                                               ; preds = %12
  store ptr null, ptr %13, align 8
  %17 = and i32 %10, -257
  store i32 %17, ptr %2, align 8
  %18 = getelementptr inbounds nuw i8, ptr %0, i64 8
  %19 = load ptr, ptr %18, align 8
  %20 = getelementptr inbounds nuw i8, ptr %19, i64 32
  %21 = load i32, ptr %20, align 8
  %22 = add i32 %21, -1
  store i32 %22, ptr %20, align 8
  %23 = load i32, ptr %2, align 8
  %24 = and i32 %23, 1
  %.not21 = icmp eq i32 %24, 0
  br i1 %.not21, label %25, label %36

25:                                               ; preds = %16
  %26 = getelementptr inbounds nuw i8, ptr %0, i64 184
  %27 = load i32, ptr %26, align 8
  %28 = tail call i32 @shutdown(i32 noundef %27, i32 noundef 1) #12
  %.not22 = icmp eq i32 %28, 0
  br i1 %.not22, label %33, label %29

29:                                               ; preds = %25
  %30 = tail call ptr @__errno_location() #13
  %31 = load i32, ptr %30, align 4
  %32 = sub nsw i32 0, %31
  br label %36

33:                                               ; preds = %25
  %34 = load i32, ptr %2, align 8
  %35 = or i32 %34, 512
  store i32 %35, ptr %2, align 8
  br label %36

36:                                               ; preds = %16, %29, %33
  %.0 = phi i32 [ %32, %29 ], [ 0, %33 ], [ -125, %16 ]
  %37 = getelementptr inbounds nuw i8, ptr %14, i64 72
  %38 = load ptr, ptr %37, align 8
  %.not23 = icmp eq ptr %38, null
  br i1 %.not23, label %40, label %39

39:                                               ; preds = %36
  tail call void %38(ptr noundef nonnull %14, i32 noundef %.0) #12
  br label %40

40:                                               ; preds = %12, %36, %39, %9
  ret void
}